target datalayout = "e-m:e-p270:32:32-p271:32:32-p272:64:64-i64:64-i128:128-f80:128-n8:16:32:64-S128"
target triple = "x86_64-pc-linux-gnu"

%class.anon.201 = type { ptr }
%"struct.__gnu_cxx::__ops::_Iter_comp_iter" = type { %class.anon.201 }

; Function Attrs: mustprogress uwtable
define internal void @"_ZSt22__stable_sort_adaptiveIPmS0_lN9__gnu_cxx5__ops15_Iter_comp_iterIZNK7xgboost8MetaInfo12LabelAbsSortEPKNS4_7ContextEE3$_0EEEvT_SB_T0_T1_T2_"(ptr noundef %0, ptr noundef %1, ptr noundef %2, i64 noundef %3, ptr %4) #5 {
  %6 = alloca %"struct.__gnu_cxx::__ops::_Iter_comp_iter", align 8
  %7 = alloca ptr, align 8
  %8 = alloca ptr, align 8
  %9 = alloca ptr, align 8
  %10 = alloca i64, align 8
  %11 = alloca i64, align 8
  %12 = alloca ptr, align 8
  %13 = alloca %"struct.__gnu_cxx::__ops::_Iter_comp_iter", align 8
  %14 = alloca %"struct.__gnu_cxx::__ops::_Iter_comp_iter", align 8
  %15 = alloca %"struct.__gnu_cxx::__ops::_Iter_comp_iter", align 8
  %16 = alloca %"struct.__gnu_cxx::__ops::_Iter_comp_iter", align 8
  %17 = alloca %"struct.__gnu_cxx::__ops::_Iter_comp_iter", align 8
  %18 = getelementptr inbounds nuw %"struct.__gnu_cxx::__ops::_Iter_comp_iter", ptr %6, i32 0, i32 0
  %19 = getelementptr inbounds nuw %class.anon.201, ptr %18, i32 0, i32 0
  store ptr %4, ptr %19, align 8
  store ptr %0, ptr %7, align 8, !tbaa !90
  store ptr %1, ptr %8, align 8, !tbaa !90
  store ptr %2, ptr %9, align 8, !tbaa !90
  store i64 %3, ptr %10, align 8, !tbaa !9
  call void @llvm.lifetime.start.p0(i64 8, ptr %11) #3
  %20 = load ptr, ptr %8, align 8, !tbaa !90
  %21 = load ptr, ptr %7, align 8, !tbaa !90
  %22 = ptrtoint ptr %20 to i64
  %23 = ptrtoint ptr %21 to i64
  %24 = sub i64 %22, %23
  %25 = sdiv exact i64 %24, 8
  %26 = add nsw i64 %25, 1
  %27 = sdiv i64 %26, 2
  store i64 %27, ptr %11, align 8, !tbaa !9
  call void @llvm.lifetime.start.p0(i64 8, ptr %12) #3
  %28 = load ptr, ptr %7, align 8, !tbaa !90
  %29 = load i64, ptr %11, align 8, !tbaa !9
  %30 = getelementptr inbounds i64, ptr %28, i64 %29
  store ptr %30, ptr %12, align 8, !tbaa !90
  %31 = load i64, ptr %11, align 8, !tbaa !9
  %32 = load i64, ptr %10, align 8, !tbaa !9
  %33 = icmp sgt i64 %31, %32
  br i1 %33, label %34, label %49

34:                                               ; preds = %5
  %35 = load ptr, ptr %7, align 8, !tbaa !90
  %36 = load ptr, ptr %12, align 8, !tbaa !90
  %37 = load ptr, ptr %9, align 8, !tbaa !90
  %38 = load i64, ptr %10, align 8, !tbaa !9
  call void @llvm.memcpy.p0.p0.i64(ptr align 8 %13, ptr align 8 %6, i64 8, i1 false), !tbaa.struct !360
  %39 = getelementptr inbounds nuw %"struct.__gnu_cxx::__ops::_Iter_comp_iter", ptr %13, i32 0, i32 0
  %40 = getelementptr inbounds nuw %class.anon.201, ptr %39, i32 0, i32 0
  %41 = load ptr, ptr %40, align 8
  call void @"_ZSt22__stable_sort_adaptiveIPmS0_lN9__gnu_cxx5__ops15_Iter_comp_iterIZNK7xgboost8MetaInfo12LabelAbsSortEPKNS4_7ContextEE3$_0EEEvT_SB_T0_T1_T2_"(ptr noundef %35, ptr noundef %36, ptr noundef %37, i64 noundef %38, ptr %41)
  %42 = load ptr, ptr %12, align 8, !tbaa !90
  %43 = load ptr, ptr %8, align 8, !tbaa !90
  %44 = load ptr, ptr %9, align 8, !tbaa !90
  %45 = load i64, ptr %10, align 8, !tbaa !9
  call void @llvm.memcpy.p0.p0.i64(ptr align 8 %14, ptr align 8 %6, i64 8, i1 false), !tbaa.struct !360
  %46 = getelementptr inbounds nuw %"struct.__gnu_cxx::__ops::_Iter_comp_iter", ptr %14, i32 0, i32 0
  %47 = getelementptr inbounds nuw %class.anon.201, ptr %46, i32 0, i32 0
  %48 = load ptr, ptr %47, align 8
  call void @"_ZSt22__stable_sort_adaptiveIPmS0_lN9__gnu_cxx5__ops15_Iter_comp_iterIZNK7xgboost8MetaInfo12LabelAbsSortEPKNS4_7ContextEE3$_0EEEvT_SB_T0_T1_T2_"(ptr noundef %42, ptr noundef %43, ptr noundef %44, i64 noundef %45, ptr %48)
  br label %62

49:                                               ; preds = %5
  %50 = load ptr, ptr %7, align 8, !tbaa !90
  %51 = load ptr, ptr %12, align 8, !tbaa !90
  %52 = load ptr, ptr %9, align 8, !tbaa !90
  call void @llvm.memcpy.p0.p0.i64(ptr align 8 %15, ptr align 8 %6, i64 8, i1 false), !tbaa.struct !360
  %53 = getelementptr inbounds nuw %"struct.__gnu_cxx::__ops::_Iter_comp_iter", ptr %15, i32 0, i32 0
  %54 = getelementptr inbounds nuw %class.anon.201, ptr %53, i32 0, i32 0
  %55 = load ptr, ptr %54, align 8
  call void @"_ZSt24__merge_sort_with_bufferIPmS0_N9__gnu_cxx5__ops15_Iter_comp_iterIZNK7xgboost8MetaInfo12LabelAbsSortEPKNS4_7ContextEE3$_0EEEvT_SB_T0_T1_"(ptr noundef %50, ptr noundef %51, ptr noundef %52, ptr %55)
  %56 = load ptr, ptr %12, align 8, !tbaa !90
  %57 = load ptr, ptr %8, align 8, !tbaa !90
  %58 = load ptr, ptr %9, align 8, !tbaa !90
  call void @llvm.memcpy.p0.p0.i64(ptr align 8 %16, ptr align 8 %6, i64 8, i1 false), !tbaa.struct !360
  %59 = getelementptr inbounds nuw %"struct.__gnu_cxx::__ops::_Iter_comp_iter", ptr %16, i32 0, i32 0
  %60 = getelementptr inbounds nuw %class.anon.201, ptr %59, i32 0, i32 0
  %61 = load ptr, ptr %60, align 8
  call void @"_ZSt24__merge_sort_with_bufferIPmS0_N9__gnu_cxx5__ops15_Iter_comp_iterIZNK7xgboost8MetaInfo12LabelAbsSortEPKNS4_7ContextEE3$_0EEEvT_SB_T0_T1_"(ptr noundef %56, ptr noundef %57, ptr noundef %58, ptr %61)
  br label %62

62:                                               ; preds = %49, %34
  %63 = load ptr, ptr %7, align 8, !tbaa !90
  %64 = load ptr, ptr %12, align 8, !tbaa !90
  %65 = load ptr, ptr %8, align 8, !tbaa !90
  %66 = load ptr, ptr %12, align 8, !tbaa !90
  %67 = load ptr, ptr %7, align 8, !tbaa !90
  %68 = ptrtoint ptr %66 to i64
  %69 = ptrtoint ptr %67 to i64
  %70 = sub i64 %68, %69
  %71 = sdiv exact i64 %70, 8
  %72 = load ptr, ptr %8, align 8, !tbaa !90
  %73 = load ptr, ptr %12, align 8, !tbaa !90
  %74 = ptrtoint ptr %72 to i64
  %75 = ptrtoint ptr %73 to i64
  %76 = sub i64 %74, %75
  %77 = sdiv exact i64 %76, 8
  %78 = load ptr, ptr %9, align 8, !tbaa !90
  %79 = load i64, ptr %10, align 8, !tbaa !9
  call void @llvm.memcpy.p0.p0.i64(ptr align 8 %17, ptr align 8 %6, i64 8, i1 false), !tbaa.struct !360
  %80 = getelementptr inbounds nuw %"struct.__gnu_cxx::__ops::_Iter_comp_iter", ptr %17, i32 0, i32 0
  %81 = getelementptr inbounds nuw %class.anon.201, ptr %80, i32 0, i32 0
  %82 = load ptr, ptr %81, align 8
  %83 = ptrtoint ptr %82 to i64
  call void @"_ZSt16__merge_adaptiveIPmlS0_N9__gnu_cxx5__ops15_Iter_comp_iterIZNK7xgboost8MetaInfo12LabelAbsSortEPKNS4_7ContextEE3$_0EEEvT_SB_SB_T0_SC_T1_SC_T2_"(ptr noundef %63, ptr noundef %64, ptr noundef %65, i64 noundef %71, i64 noundef %77, ptr noundef %78, i64 noundef %79, i64 %83)
  call void @llvm.lifetime.end.p0(i64 8, ptr %12) #3
  call void @llvm.lifetime.end.p0(i64 8, ptr %11) #3
  ret void
}